target datalayout = "e-m:e-p270:32:32-p271:32:32-p272:64:64-i64:64-i128:128-f80:128-n8:16:32:64-S128"
target triple = "x86_64-pc-linux-gnu"

%struct.CatalogId = type { i32, i32 }
%struct._dumpableObject = type { i32, %struct.CatalogId, i32, ptr, ptr, i32, i32, i32, i8, i8, ptr, i32, i32 }
%struct.PQExpBufferData = type { ptr, i64, i64 }
%struct._tableInfo = type { %struct._dumpableObject, %struct._dumpableAcl, ptr, i8, i8, i8, i8, ptr, ptr, ptr, ptr, i8, i8, i8, i8, i8, i8, i8, i32, i32, i32, i32, i32, i32, i32, i32, i32, i32, i32, i8, i32, i32, i8, i8, i8, i8, i8, i32, ptr, i32, ptr, ptr, ptr, ptr, ptr, ptr, ptr, ptr, ptr, ptr, ptr, ptr, ptr, ptr, ptr, ptr, ptr, ptr, ptr, ptr, ptr, i8, ptr, i32, ptr, ptr, i32, ptr }
%struct._dumpableAcl = type { ptr, ptr, i8, ptr }
%struct._typeInfo = type { %struct._dumpableObject, %struct._dumpableAcl, ptr, ptr, i32, i32, i32, i8, i8, i8, i8, i8, ptr, i32, ptr }
%struct.CommentItem = type { ptr, i32, i32, i32 }

@.str.698 = private unnamed_addr constant [12 x i8] c"description\00", align 1
@.str.764 = private unnamed_addr constant [114 x i8] c"SELECT description, classoid, objoid, objsubid FROM pg_catalog.pg_description ORDER BY classoid, objoid, objsubid\00", align 1
@.str.765 = private unnamed_addr constant [9 x i8] c"classoid\00", align 1
@.str.766 = private unnamed_addr constant [7 x i8] c"objoid\00", align 1
@.str.767 = private unnamed_addr constant [9 x i8] c"objsubid\00", align 1
@comments = internal global ptr null, align 8
@ncomments = internal global i32 0, align 4

; Function Attrs: inlinehint nounwind willreturn memory(read) uwtable
define available_externally i32 @atoi(ptr noundef nonnull %0) #8 {
  %2 = alloca ptr, align 8
  store ptr %0, ptr %2, align 8
  %3 = load ptr, ptr %2, align 8
  %4 = call i64 @strtol(ptr noundef %3, ptr noundef null, i32 noundef 10) #10
  %5 = trunc i64 %4 to i32
  ret i32 %5
}

; Function Attrs: nounwind uwtable
define internal void @collectComments(ptr noundef %0) #0 {
  %2 = alloca ptr, align 8
  %3 = alloca ptr, align 8
  %4 = alloca ptr, align 8
  %5 = alloca i32, align 4
  %6 = alloca i32, align 4
  %7 = alloca i32, align 4
  %8 = alloca i32, align 4
  %9 = alloca i32, align 4
  %10 = alloca i32, align 4
  %11 = alloca ptr, align 8
  %12 = alloca %struct.CatalogId, align 4
  %13 = alloca i32, align 4
  %14 = alloca i32, align 4
  %15 = alloca ptr, align 8
  store ptr %0, ptr %2, align 8
  call void @llvm.lifetime.start.p0(i64 8, ptr %3) #10
  call void @llvm.lifetime.start.p0(i64 8, ptr %4) #10
  call void @llvm.lifetime.start.p0(i64 4, ptr %5) #10
  call void @llvm.lifetime.start.p0(i64 4, ptr %6) #10
  call void @llvm.lifetime.start.p0(i64 4, ptr %7) #10
  call void @llvm.lifetime.start.p0(i64 4, ptr %8) #10
  call void @llvm.lifetime.start.p0(i64 4, ptr %9) #10
  call void @llvm.lifetime.start.p0(i64 4, ptr %10) #10
  call void @llvm.lifetime.start.p0(i64 8, ptr %11) #10
  %16 = call ptr @createPQExpBuffer()
  store ptr %16, ptr %4, align 8
  %17 = load ptr, ptr %4, align 8
  call void @appendPQExpBufferStr(ptr noundef %17, ptr noundef @.str.764)
  %18 = load ptr, ptr %2, align 8
  %19 = load ptr, ptr %4, align 8
  %20 = getelementptr inbounds nuw %struct.PQExpBufferData, ptr %19, i32 0, i32 0
  %21 = load ptr, ptr %20, align 8
  %22 = call ptr @ExecuteSqlQuery(ptr noundef %18, ptr noundef %21, i32 noundef 2)
  store ptr %22, ptr %3, align 8
  %23 = load ptr, ptr %3, align 8
  %24 = call i32 @PQfnumber(ptr noundef %23, ptr noundef @.str.698)
  store i32 %24, ptr %5, align 4
  %25 = load ptr, ptr %3, align 8
  %26 = call i32 @PQfnumber(ptr noundef %25, ptr noundef @.str.765)
  store i32 %26, ptr %6, align 4
  %27 = load ptr, ptr %3, align 8
  %28 = call i32 @PQfnumber(ptr noundef %27, ptr noundef @.str.766)
  store i32 %28, ptr %7, align 4
  %29 = load ptr, ptr %3, align 8
  %30 = call i32 @PQfnumber(ptr noundef %29, ptr noundef @.str.767)
  store i32 %30, ptr %8, align 4
  %31 = load ptr, ptr %3, align 8
  %32 = call i32 @PQntuples(ptr noundef %31)
  store i32 %32, ptr %9, align 4
  %33 = load i32, ptr %9, align 4
  %34 = sext i32 %33 to i64
  %35 = mul i64 %34, 24
  %36 = call ptr @pg_malloc(i64 noundef %35)
  store ptr %36, ptr @comments, align 8
  store i32 0, ptr @ncomments, align 4
  store ptr null, ptr %11, align 8
  store i32 0, ptr %10, align 4
  br label %37

37:                                               ; preds = %155, %1
  %38 = load i32, ptr %10, align 4
  %39 = load i32, ptr %9, align 4
  %40 = icmp slt i32 %38, %39
  br i1 %40, label %41, label %158

41:                                               ; preds = %37
  call void @llvm.lifetime.start.p0(i64 8, ptr %12) #10
  call void @llvm.lifetime.start.p0(i64 4, ptr %13) #10
  %42 = load ptr, ptr %3, align 8
  %43 = load i32, ptr %10, align 4
  %44 = load i32, ptr %6, align 4
  %45 = call ptr @PQgetvalue(ptr noundef %42, i32 noundef %43, i32 noundef %44)
  %46 = call i64 @strtoul(ptr noundef %45, ptr noundef null, i32 noundef 10) #10
  %47 = trunc i64 %46 to i32
  %48 = getelementptr inbounds nuw %struct.CatalogId, ptr %12, i32 0, i32 0
  store i32 %47, ptr %48, align 4
  %49 = load ptr, ptr %3, align 8
  %50 = load i32, ptr %10, align 4
  %51 = load i32, ptr %7, align 4
  %52 = call ptr @PQgetvalue(ptr noundef %49, i32 noundef %50, i32 noundef %51)
  %53 = call i64 @strtoul(ptr noundef %52, ptr noundef null, i32 noundef 10) #10
  %54 = trunc i64 %53 to i32
  %55 = getelementptr inbounds nuw %struct.CatalogId, ptr %12, i32 0, i32 1
  store i32 %54, ptr %55, align 4
  %56 = load ptr, ptr %3, align 8
  %57 = load i32, ptr %10, align 4
  %58 = load i32, ptr %8, align 4
  %59 = call ptr @PQgetvalue(ptr noundef %56, i32 noundef %57, i32 noundef %58)
  %60 = call i32 @atoi(ptr noundef %59) #11
  store i32 %60, ptr %13, align 4
  %61 = load ptr, ptr %11, align 8
  %62 = icmp eq ptr %61, null
  br i1 %62, label %79, label %63

63:                                               ; preds = %41
  %64 = load ptr, ptr %11, align 8
  %65 = getelementptr inbounds nuw %struct._dumpableObject, ptr %64, i32 0, i32 1
  %66 = getelementptr inbounds nuw %struct.CatalogId, ptr %65, i32 0, i32 0
  %67 = load i32, ptr %66, align 4
  %68 = getelementptr inbounds nuw %struct.CatalogId, ptr %12, i32 0, i32 0
  %69 = load i32, ptr %68, align 4
  %70 = icmp ne i32 %67, %69
  br i1 %70, label %79, label %71

71:                                               ; preds = %63
  %72 = load ptr, ptr %11, align 8
  %73 = getelementptr inbounds nuw %struct._dumpableObject, ptr %72, i32 0, i32 1
  %74 = getelementptr inbounds nuw %struct.CatalogId, ptr %73, i32 0, i32 1
  %75 = load i32, ptr %74, align 4
  %76 = getelementptr inbounds nuw %struct.CatalogId, ptr %12, i32 0, i32 1
  %77 = load i32, ptr %76, align 4
  %78 = icmp ne i32 %75, %77
  br i1 %78, label %79, label %82

79:                                               ; preds = %71, %63, %41
  %80 = load i64, ptr %12, align 4
  %81 = call ptr @findObjectByCatalogId(i64 %80)
  store ptr %81, ptr %11, align 8
  br label %82

82:                                               ; preds = %79, %71
  %83 = load ptr, ptr %11, align 8
  %84 = icmp eq ptr %83, null
  br i1 %84, label %85, label %86

85:                                               ; preds = %82
  store i32 4, ptr %14, align 4
  br label %152

86:                                               ; preds = %82
  %87 = load i32, ptr %13, align 4
  %88 = icmp ne i32 %87, 0
  br i1 %88, label %89, label %114

89:                                               ; preds = %86
  %90 = load ptr, ptr %11, align 8
  %91 = getelementptr inbounds nuw %struct._dumpableObject, ptr %90, i32 0, i32 0
  %92 = load i32, ptr %91, align 8
  %93 = icmp eq i32 %92, 12
  br i1 %93, label %94, label %114

94:                                               ; preds = %89
  %95 = load ptr, ptr %11, align 8
  %96 = getelementptr inbounds nuw %struct._tableInfo, ptr %95, i32 0, i32 3
  %97 = load i8, ptr %96, align 8
  %98 = sext i8 %97 to i32
  %99 = icmp eq i32 %98, 99
  br i1 %99, label %100, label %114

100:                                              ; preds = %94
  call void @llvm.lifetime.start.p0(i64 8, ptr %15) #10
  %101 = load ptr, ptr %11, align 8
  %102 = getelementptr inbounds nuw %struct._tableInfo, ptr %101, i32 0, i32 24
  %103 = load i32, ptr %102, align 8
  %104 = call ptr @findTypeByOid(i32 noundef %103)
  store ptr %104, ptr %15, align 8
  %105 = load ptr, ptr %15, align 8
  %106 = icmp ne ptr %105, null
  br i1 %106, label %107, label %113

107:                                              ; preds = %100
  %108 = load ptr, ptr %15, align 8
  %109 = getelementptr inbounds nuw %struct._typeInfo, ptr %108, i32 0, i32 0
  %110 = getelementptr inbounds nuw %struct._dumpableObject, ptr %109, i32 0, i32 7
  %111 = load i32, ptr %110, align 8
  %112 = or i32 %111, 4
  store i32 %112, ptr %110, align 8
  br label %113

113:                                              ; preds = %107, %100
  call void @llvm.lifetime.end.p0(i64 8, ptr %15) #10
  br label %119

114:                                              ; preds = %94, %89, %86
  %115 = load ptr, ptr %11, align 8
  %116 = getelementptr inbounds nuw %struct._dumpableObject, ptr %115, i32 0, i32 7
  %117 = load i32, ptr %116, align 8
  %118 = or i32 %117, 4
  store i32 %118, ptr %116, align 8
  br label %119

119:                                              ; preds = %114, %113
  %120 = load ptr, ptr %3, align 8
  %121 = load i32, ptr %10, align 4
  %122 = load i32, ptr %5, align 4
  %123 = call ptr @PQgetvalue(ptr noundef %120, i32 noundef %121, i32 noundef %122)
  %124 = call ptr @pg_strdup(ptr noundef %123)
  %125 = load ptr, ptr @comments, align 8
  %126 = load i32, ptr @ncomments, align 4
  %127 = sext i32 %126 to i64
  %128 = getelementptr inbounds %struct.CommentItem, ptr %125, i64 %127
  %129 = getelementptr inbounds nuw %struct.CommentItem, ptr %128, i32 0, i32 0
  store ptr %124, ptr %129, align 8
  %130 = getelementptr inbounds nuw %struct.CatalogId, ptr %12, i32 0, i32 0
  %131 = load i32, ptr %130, align 4
  %132 = load ptr, ptr @comments, align 8
  %133 = load i32, ptr @ncomments, align 4
  %134 = sext i32 %133 to i64
  %135 = getelementptr inbounds %struct.CommentItem, ptr %132, i64 %134
  %136 = getelementptr inbounds nuw %struct.CommentItem, ptr %135, i32 0, i32 1
  store i32 %131, ptr %136, align 8
  %137 = getelementptr inbounds nuw %struct.CatalogId, ptr %12, i32 0, i32 1
  %138 = load i32, ptr %137, align 4
  %139 = load ptr, ptr @comments, align 8
  %140 = load i32, ptr @ncomments, align 4
  %141 = sext i32 %140 to i64
  %142 = getelementptr inbounds %struct.CommentItem, ptr %139, i64 %141
  %143 = getelementptr inbounds nuw %struct.CommentItem, ptr %142, i32 0, i32 2
  store i32 %138, ptr %143, align 4
  %144 = load i32, ptr %13, align 4
  %145 = load ptr, ptr @comments, align 8
  %146 = load i32, ptr @ncomments, align 4
  %147 = sext i32 %146 to i64
  %148 = getelementptr inbounds %struct.CommentItem, ptr %145, i64 %147
  %149 = getelementptr inbounds nuw %struct.CommentItem, ptr %148, i32 0, i32 3
  store i32 %144, ptr %149, align 8
  %150 = load i32, ptr @ncomments, align 4
  %151 = add i32 %150, 1
  store i32 %151, ptr @ncomments, align 4
  store i32 0, ptr %14, align 4
  br label %152

152:                                              ; preds = %119, %85
  call void @llvm.lifetime.end.p0(i64 4, ptr %13) #10
  call void @llvm.lifetime.end.p0(i64 8, ptr %12) #10
  %153 = load i32, ptr %14, align 4
  switch i32 %153, label %161 [
    i32 0, label %154
    i32 4, label %155
  ]

154:                                              ; preds = %152
  br label %155

155:                                              ; preds = %154, %152
  %156 = load i32, ptr %10, align 4
  %157 = add i32 %156, 1
  store i32 %157, ptr %10, align 4
  br label %37, !llvm.loop !28

158:                                              ; preds = %37
  %159 = load ptr, ptr %3, align 8
  call void @PQclear(ptr noundef %159)
  %160 = load ptr, ptr %4, align 8
  call void @destroyPQExpBuffer(ptr noundef %160)
  call void @llvm.lifetime.end.p0(i64 8, ptr %11) #10
  call void @llvm.lifetime.end.p0(i64 4, ptr %10) #10
  call void @llvm.lifetime.end.p0(i64 4, ptr %9) #10
  call void @llvm.lifetime.end.p0(i64 4, ptr %8) #10
  call void @llvm.lifetime.end.p0(i64 4, ptr %7) #10
  call void @llvm.lifetime.end.p0(i64 4, ptr %6) #10
  call void @llvm.lifetime.end.p0(i64 4, ptr %5) #10
  call void @llvm.lifetime.end.p0(i64 8, ptr %4) #10
  call void @llvm.lifetime.end.p0(i64 8, ptr %3) #10
  ret void

161:                                              ; preds = %152
  unreachable
}