; Function Attrs: nounwind uwtable
define internal fastcc void @collectComments(ptr noundef %0) unnamed_addr #5 {
  %2 = tail call ptr @createPQExpBuffer() #14
  tail call void @appendPQExpBufferStr(ptr noundef %2, ptr noundef nonnull @.str.764) #14
  %3 = load ptr, ptr %2, align 8
  %4 = tail call ptr @ExecuteSqlQuery(ptr noundef %0, ptr noundef %3, i32 noundef 2) #14
  %5 = tail call i32 @PQfnumber(ptr noundef %4, ptr noundef nonnull @.str.698) #14
  %6 = tail call i32 @PQfnumber(ptr noundef %4, ptr noundef nonnull @.str.765) #14
  %7 = tail call i32 @PQfnumber(ptr noundef %4, ptr noundef nonnull @.str.766) #14
  %8 = tail call i32 @PQfnumber(ptr noundef %4, ptr noundef nonnull @.str.767) #14
  %9 = tail call i32 @PQntuples(ptr noundef %4) #14
  %10 = sext i32 %9 to i64
  %11 = mul nsw i64 %10, 24
  %12 = tail call ptr @pg_malloc(i64 noundef %11) #14
  store ptr %12, ptr @comments, align 8
  store i32 0, ptr @ncomments, align 4
  %13 = icmp sgt i32 %9, 0
  br i1 %13, label %.lr.ph, label %._crit_edge

.lr.ph:                                           ; preds = %1, %58
  %.049 = phi i32 [ %59, %58 ], [ 0, %1 ]
  %.04048 = phi ptr [ %.147, %58 ], [ null, %1 ]
  %14 = tail call ptr @PQgetvalue(ptr noundef %4, i32 noundef %.049, i32 noundef %6) #14
  %15 = tail call i64 @strtoul(ptr noundef captures(none) %14, ptr noundef null, i32 noundef 10) #14
  %16 = trunc i64 %15 to i32
  %17 = tail call ptr @PQgetvalue(ptr noundef %4, i32 noundef %.049, i32 noundef %7) #14
  %18 = tail call i64 @strtoul(ptr noundef captures(none) %17, ptr noundef null, i32 noundef 10) #14
  %19 = trunc i64 %18 to i32
  %20 = tail call ptr @PQgetvalue(ptr noundef %4, i32 noundef %.049, i32 noundef %8) #14
  %21 = tail call i64 @strtol(ptr noundef nonnull captures(none) %20, ptr noundef null, i32 noundef 10) #14
  %22 = trunc i64 %21 to i32
  %23 = icmp eq ptr %.04048, null
  br i1 %23, label %30, label %24

24:                                               ; preds = %.lr.ph
  %25 = getelementptr inbounds nuw i8, ptr %.04048, i64 4
  %26 = load i32, ptr %25, align 4
  %.not = icmp eq i32 %26, %16
  br i1 %.not, label %27, label %30

27:                                               ; preds = %24
  %28 = getelementptr inbounds nuw i8, ptr %.04048, i64 8
  %29 = load i32, ptr %28, align 4
  %.not42 = icmp eq i32 %29, %19
  br i1 %.not42, label %.thread, label %30

30:                                               ; preds = %.lr.ph, %24, %27
  %.sroa.6.0.insert.ext = shl i64 %18, 32
  %.sroa.0.0.insert.ext = and i64 %15, 4294967295
  %.sroa.0.0.insert.insert = or disjoint i64 %.sroa.6.0.insert.ext, %.sroa.0.0.insert.ext
  %31 = tail call ptr @findObjectByCatalogId(i64 %.sroa.0.0.insert.insert) #14
  %32 = icmp eq ptr %31, null
  br i1 %32, label %58, label %.thread

.thread:                                          ; preds = %27, %30
  %.146 = phi ptr [ %31, %30 ], [ %.04048, %27 ]
  %.not43 = icmp eq i32 %22, 0
  br i1 %.not43, label %.sink.split, label %33

33:                                               ; preds = %.thread
  %34 = load i32, ptr %.146, align 8
  %35 = icmp eq i32 %34, 12
  br i1 %35, label %36, label %.sink.split

36:                                               ; preds = %33
  %37 = getelementptr inbounds nuw i8, ptr %.146, i64 104
  %38 = load i8, ptr %37, align 8
  %39 = icmp eq i8 %38, 99
  br i1 %39, label %40, label %.sink.split

40:                                               ; preds = %36
  %41 = getelementptr inbounds nuw i8, ptr %.146, i64 176
  %42 = load i32, ptr %41, align 8
  %43 = tail call ptr @findTypeByOid(i32 noundef %42) #14
  %.not44 = icmp eq ptr %43, null
  br i1 %.not44, label %47, label %.sink.split

.sink.split:                                      ; preds = %.thread, %33, %36, %40
  %.sink52 = phi ptr [ %43, %40 ], [ %.146, %36 ], [ %.146, %33 ], [ %.146, %.thread ]
  %44 = getelementptr inbounds nuw i8, ptr %.sink52, i64 40
  %45 = load i32, ptr %44, align 8
  %46 = or i32 %45, 4
  store i32 %46, ptr %44, align 8
  br label %47

47:                                               ; preds = %.sink.split, %40
  %48 = tail call ptr @PQgetvalue(ptr noundef %4, i32 noundef %.049, i32 noundef %5) #14
  %49 = tail call ptr @pg_strdup(ptr noundef %48) #14
  %50 = load ptr, ptr @comments, align 8
  %51 = load i32, ptr @ncomments, align 4
  %52 = sext i32 %51 to i64
  %53 = getelementptr inbounds %struct.CommentItem, ptr %50, i64 %52
  store ptr %49, ptr %53, align 8
  %54 = getelementptr inbounds %struct.CommentItem, ptr %50, i64 %52, i32 1
  store i32 %16, ptr %54, align 8
  %55 = getelementptr inbounds %struct.CommentItem, ptr %50, i64 %52, i32 2
  store i32 %19, ptr %55, align 4
  %56 = getelementptr inbounds %struct.CommentItem, ptr %50, i64 %52, i32 3
  store i32 %22, ptr %56, align 8
  %57 = add i32 %51, 1
  store i32 %57, ptr @ncomments, align 4
  br label %58

58:                                               ; preds = %30, %47
  %.147 = phi ptr [ null, %30 ], [ %.146, %47 ]
  %59 = add nuw nsw i32 %.049, 1
  %exitcond.not = icmp eq i32 %59, %9
  br i1 %exitcond.not, label %._crit_edge, label %.lr.ph, !llvm.loop !48

._crit_edge:                                      ; preds = %58, %1
  tail call void @PQclear(ptr noundef %4) #14
  tail call void @destroyPQExpBuffer(ptr noundef nonnull %2) #14
  ret void
}